; Function Attrs: mustprogress uwtable
define noundef nonnull align 8 dereferenceable(8) ptr @_ZN2cv4gapi4s11nrsERNS1_8IIStreamERNS0_3wip4draw4TextE(ptr noundef nonnull align 8 dereferenceable(8) %0, ptr noundef nonnull align 8 dereferenceable(97) %1) local_unnamed_addr #3 {
  %3 = getelementptr inbounds nuw i8, ptr %1, i64 96
  %4 = load ptr, ptr %0, align 8, !tbaa !8
  %5 = getelementptr inbounds nuw i8, ptr %4, i64 16
  %6 = load ptr, ptr %5, align 8
  %7 = tail call noundef nonnull align 8 dereferenceable(8) ptr %6(ptr noundef nonnull align 8 dereferenceable(8) %0, ptr noundef nonnull align 1 dereferenceable(1) %3)
  %8 = getelementptr inbounds nuw i8, ptr %1, i64 56
  %9 = load ptr, ptr %7, align 8, !tbaa !8
  %10 = getelementptr inbounds nuw i8, ptr %9, i64 80
  %11 = load ptr, ptr %10, align 8
  %12 = tail call noundef nonnull align 8 dereferenceable(8) ptr %11(ptr noundef nonnull align 8 dereferenceable(8) %7, ptr noundef nonnull align 8 dereferenceable(32) %8)
  %13 = getelementptr inbounds nuw i8, ptr %1, i64 64
  %14 = load ptr, ptr %12, align 8, !tbaa !8
  %15 = getelementptr inbounds nuw i8, ptr %14, i64 80
  %16 = load ptr, ptr %15, align 8
  %17 = tail call noundef nonnull align 8 dereferenceable(8) ptr %16(ptr noundef nonnull align 8 dereferenceable(8) %12, ptr noundef nonnull align 8 dereferenceable(8) %13)
  %18 = getelementptr inbounds nuw i8, ptr %1, i64 72
  %19 = load ptr, ptr %17, align 8, !tbaa !8
  %20 = getelementptr inbounds nuw i8, ptr %19, i64 80
  %21 = load ptr, ptr %20, align 8
  %22 = tail call noundef nonnull align 8 dereferenceable(8) ptr %21(ptr noundef nonnull align 8 dereferenceable(8) %17, ptr noundef nonnull align 8 dereferenceable(8) %18)
  %23 = getelementptr inbounds nuw i8, ptr %1, i64 80
  %24 = load ptr, ptr %22, align 8, !tbaa !8
  %25 = getelementptr inbounds nuw i8, ptr %24, i64 80
  %26 = load ptr, ptr %25, align 8
  %27 = tail call noundef nonnull align 8 dereferenceable(8) ptr %26(ptr noundef nonnull align 8 dereferenceable(8) %22, ptr noundef nonnull align 8 dereferenceable(8) %23)
  %28 = getelementptr inbounds nuw i8, ptr %1, i64 40
  %29 = load ptr, ptr %27, align 8, !tbaa !8
  %30 = getelementptr inbounds nuw i8, ptr %29, i64 64
  %31 = load ptr, ptr %30, align 8
  %32 = tail call noundef nonnull align 8 dereferenceable(8) ptr %31(ptr noundef nonnull align 8 dereferenceable(8) %27, ptr noundef nonnull align 4 dereferenceable(4) %28)
  %33 = getelementptr inbounds nuw i8, ptr %1, i64 48
  %34 = load ptr, ptr %32, align 8, !tbaa !8
  %35 = getelementptr inbounds nuw i8, ptr %34, i64 80
  %36 = load ptr, ptr %35, align 8
  %37 = tail call noundef nonnull align 8 dereferenceable(8) ptr %36(ptr noundef nonnull align 8 dereferenceable(8) %32, ptr noundef nonnull align 8 dereferenceable(8) %33)
  %38 = getelementptr inbounds nuw i8, ptr %1, i64 92
  %39 = load ptr, ptr %37, align 8, !tbaa !8
  %40 = getelementptr inbounds nuw i8, ptr %39, i64 64
  %41 = load ptr, ptr %40, align 8
  %42 = tail call noundef nonnull align 8 dereferenceable(8) ptr %41(ptr noundef nonnull align 8 dereferenceable(8) %37, ptr noundef nonnull align 4 dereferenceable(4) %38)
  %43 = getelementptr inbounds nuw i8, ptr %1, i64 32
  %44 = load ptr, ptr %42, align 8, !tbaa !8
  %45 = getelementptr inbounds nuw i8, ptr %44, i64 64
  %46 = load ptr, ptr %45, align 8
  %47 = tail call noundef nonnull align 8 dereferenceable(8) ptr %46(ptr noundef nonnull align 8 dereferenceable(8) %42, ptr noundef nonnull align 4 dereferenceable(8) %43)
  %48 = getelementptr inbounds nuw i8, ptr %1, i64 36
  %49 = load ptr, ptr %47, align 8, !tbaa !8
  %50 = getelementptr inbounds nuw i8, ptr %49, i64 64
  %51 = load ptr, ptr %50, align 8
  %52 = tail call noundef nonnull align 8 dereferenceable(8) ptr %51(ptr noundef nonnull align 8 dereferenceable(8) %47, ptr noundef nonnull align 4 dereferenceable(4) %48)
  %53 = load ptr, ptr %52, align 8, !tbaa !8
  %54 = getelementptr inbounds nuw i8, ptr %53, i64 104
  %55 = load ptr, ptr %54, align 8
  %56 = tail call noundef nonnull align 8 dereferenceable(8) ptr %55(ptr noundef nonnull align 8 dereferenceable(8) %52, ptr noundef nonnull align 8 dereferenceable(32) %1)
  %57 = getelementptr inbounds nuw i8, ptr %1, i64 88
  %58 = load ptr, ptr %56, align 8, !tbaa !8
  %59 = getelementptr inbounds nuw i8, ptr %58, i64 64
  %60 = load ptr, ptr %59, align 8
  %61 = tail call noundef nonnull align 8 dereferenceable(8) ptr %60(ptr noundef nonnull align 8 dereferenceable(8) %56, ptr noundef nonnull align 4 dereferenceable(4) %57)
  ret ptr %61
}